target datalayout = "e-m:e-p270:32:32-p271:32:32-p272:64:64-i64:64-i128:128-f80:128-n8:16:32:64-S128"
target triple = "x86_64-pc-linux-gnu"

%struct.__ncnn_allocator_t = type { ptr, ptr, ptr }
%"class.ncnn::Mat" = type { ptr, ptr, i64, i32, ptr, i32, i32, i32, i32, i32, i64 }

; Function Attrs: mustprogress uwtable
define hidden ptr @ncnn_mat_create_external_2d_elem(i32 noundef %0, i32 noundef %1, ptr noundef %2, i64 noundef %3, i32 noundef %4, ptr noundef %5) #1 personality ptr @__gxx_personality_v0 {
  %7 = alloca ptr, align 8
  %8 = alloca i32, align 4
  %9 = alloca i32, align 4
  %10 = alloca ptr, align 8
  %11 = alloca i64, align 8
  %12 = alloca i32, align 4
  %13 = alloca ptr, align 8
  %14 = alloca i32, align 4
  %15 = alloca i32, align 4
  %16 = alloca ptr, align 8
  %17 = alloca i64, align 8
  %18 = alloca i32, align 4
  %19 = alloca ptr, align 8
  %20 = alloca ptr, align 8
  %21 = alloca i32, align 4
  store i32 %0, ptr %14, align 4
  store i32 %1, ptr %15, align 4
  store ptr %2, ptr %16, align 8
  store i64 %3, ptr %17, align 8
  store i32 %4, ptr %18, align 4
  store ptr %5, ptr %19, align 8
  %22 = call noalias noundef nonnull ptr @_Znwm(i64 noundef 72) #13
  %23 = load i32, ptr %14, align 4
  %24 = load i32, ptr %15, align 4
  %25 = load ptr, ptr %16, align 8
  %26 = load i64, ptr %17, align 8
  %27 = load i32, ptr %18, align 4
  %28 = load ptr, ptr %19, align 8
  %29 = icmp ne ptr %28, null
  br i1 %29, label %30, label %34

30:                                               ; preds = %6
  %31 = load ptr, ptr %19, align 8
  %32 = getelementptr inbounds nuw %struct.__ncnn_allocator_t, ptr %31, i32 0, i32 0
  %33 = load ptr, ptr %32, align 8
  br label %35

34:                                               ; preds = %6
  br label %35

35:                                               ; preds = %34, %30
  %36 = phi ptr [ %33, %30 ], [ null, %34 ]
  store ptr %22, ptr %7, align 8
  store i32 %23, ptr %8, align 4
  store i32 %24, ptr %9, align 4
  store ptr %25, ptr %10, align 8
  store i64 %26, ptr %11, align 8
  store i32 %27, ptr %12, align 4
  store ptr %36, ptr %13, align 8
  %37 = load ptr, ptr %7, align 8
  %38 = load ptr, ptr %10, align 8
  store ptr %38, ptr %37, align 8
  %39 = getelementptr inbounds nuw %"class.ncnn::Mat", ptr %37, i32 0, i32 1
  store ptr null, ptr %39, align 8
  %40 = getelementptr inbounds nuw %"class.ncnn::Mat", ptr %37, i32 0, i32 2
  %41 = load i64, ptr %11, align 8
  store i64 %41, ptr %40, align 8
  %42 = getelementptr inbounds nuw %"class.ncnn::Mat", ptr %37, i32 0, i32 3
  %43 = load i32, ptr %12, align 4
  store i32 %43, ptr %42, align 8
  %44 = getelementptr inbounds nuw %"class.ncnn::Mat", ptr %37, i32 0, i32 4
  %45 = load ptr, ptr %13, align 8
  store ptr %45, ptr %44, align 8
  %46 = getelementptr inbounds nuw %"class.ncnn::Mat", ptr %37, i32 0, i32 5
  store i32 2, ptr %46, align 8
  %47 = getelementptr inbounds nuw %"class.ncnn::Mat", ptr %37, i32 0, i32 6
  %48 = load i32, ptr %8, align 4
  store i32 %48, ptr %47, align 4
  %49 = getelementptr inbounds nuw %"class.ncnn::Mat", ptr %37, i32 0, i32 7
  %50 = load i32, ptr %9, align 4
  store i32 %50, ptr %49, align 8
  %51 = getelementptr inbounds nuw %"class.ncnn::Mat", ptr %37, i32 0, i32 8
  store i32 1, ptr %51, align 4
  %52 = getelementptr inbounds nuw %"class.ncnn::Mat", ptr %37, i32 0, i32 9
  store i32 1, ptr %52, align 8
  %53 = getelementptr inbounds nuw %"class.ncnn::Mat", ptr %37, i32 0, i32 6
  %54 = load i32, ptr %53, align 4
  %55 = sext i32 %54 to i64
  %56 = getelementptr inbounds nuw %"class.ncnn::Mat", ptr %37, i32 0, i32 7
  %57 = load i32, ptr %56, align 8
  %58 = sext i32 %57 to i64
  %59 = mul i64 %55, %58
  %60 = getelementptr inbounds nuw %"class.ncnn::Mat", ptr %37, i32 0, i32 10
  store i64 %59, ptr %60, align 8
  br label %61

61:                                               ; preds = %35
  ret ptr %22

62:                                               ; No predecessors!
  %63 = landingpad { ptr, i32 }
          cleanup
  %64 = extractvalue { ptr, i32 } %63, 0
  store ptr %64, ptr %20, align 8
  %65 = extractvalue { ptr, i32 } %63, 1
  store i32 %65, ptr %21, align 4
  call void @_ZdlPvm(ptr noundef %22, i64 noundef 72) #14
  br label %66

66:                                               ; preds = %62
  %67 = load ptr, ptr %20, align 8
  %68 = load i32, ptr %21, align 4
  %69 = insertvalue { ptr, i32 } poison, ptr %67, 0
  %70 = insertvalue { ptr, i32 } %69, i32 %68, 1
  resume { ptr, i32 } %70
}