; Function Attrs: mustprogress uwtable
define hidden noalias noundef nonnull ptr @ncnn_mat_create_external_2d_elem(i32 noundef %0, i32 noundef %1, ptr noundef %2, i64 noundef %3, i32 noundef %4, ptr noundef readonly %5) local_unnamed_addr #1 personality ptr @__gxx_personality_v0 {
  %7 = tail call noalias noundef nonnull dereferenceable(72) ptr @_Znwm(i64 noundef 72) #24
  %.not = icmp eq ptr %5, null
  br i1 %.not, label %10, label %8

8:                                                ; preds = %6
  %9 = load ptr, ptr %5, align 8
  br label %10

10:                                               ; preds = %6, %8
  %11 = phi ptr [ %9, %8 ], [ null, %6 ]
  store ptr %2, ptr %7, align 8
  %12 = getelementptr inbounds nuw i8, ptr %7, i64 8
  store ptr null, ptr %12, align 8
  %13 = getelementptr inbounds nuw i8, ptr %7, i64 16
  store i64 %3, ptr %13, align 8
  %14 = getelementptr inbounds nuw i8, ptr %7, i64 24
  store i32 %4, ptr %14, align 8
  %15 = getelementptr inbounds nuw i8, ptr %7, i64 32
  store ptr %11, ptr %15, align 8
  %16 = getelementptr inbounds nuw i8, ptr %7, i64 40
  store i32 2, ptr %16, align 8
  %17 = getelementptr inbounds nuw i8, ptr %7, i64 44
  store i32 %0, ptr %17, align 4
  %18 = getelementptr inbounds nuw i8, ptr %7, i64 48
  store i32 %1, ptr %18, align 8
  %19 = getelementptr inbounds nuw i8, ptr %7, i64 52
  store i32 1, ptr %19, align 4
  %20 = getelementptr inbounds nuw i8, ptr %7, i64 56
  store i32 1, ptr %20, align 8
  %21 = sext i32 %0 to i64
  %22 = sext i32 %1 to i64
  %23 = mul nsw i64 %22, %21
  %24 = getelementptr inbounds nuw i8, ptr %7, i64 64
  store i64 %23, ptr %24, align 8
  ret ptr %7
}